target datalayout = "e-m:e-p270:32:32-p271:32:32-p272:64:64-i64:64-i128:128-f80:128-n8:16:32:64-S128"
target triple = "x86_64-pc-linux-gnu"

@.str.14 = private unnamed_addr constant [27 x i8] c"%s[%2d] (%16.9e - %16.9e)\0A\00", align 1
@.str.15 = private unnamed_addr constant [22 x i8] c"%s (%16.9e - %16.9e)\0A\00", align 1

; Function Attrs: mustprogress nounwind uwtable
define noundef zeroext i1 @_Z12equal_doubleddff(double noundef %0, double noundef %1, float noundef %2, float noundef %3) #0 {
  %5 = alloca double, align 8
  %6 = alloca double, align 8
  %7 = alloca float, align 4
  %8 = alloca float, align 4
  store double %0, ptr %5, align 8, !tbaa !24
  store double %1, ptr %6, align 8, !tbaa !24
  store float %2, ptr %7, align 4, !tbaa !22
  store float %3, ptr %8, align 4, !tbaa !22
  %9 = load double, ptr %5, align 8, !tbaa !24
  %10 = load double, ptr %6, align 8, !tbaa !24
  %11 = fsub double %9, %10
  %12 = call double @llvm.fabs.f64(double %11)
  %13 = fmul double 2.000000e+00, %12
  %14 = load double, ptr %5, align 8, !tbaa !24
  %15 = call double @llvm.fabs.f64(double %14)
  %16 = load double, ptr %6, align 8, !tbaa !24
  %17 = call double @llvm.fabs.f64(double %16)
  %18 = fadd double %15, %17
  %19 = load float, ptr %7, align 4, !tbaa !22
  %20 = fpext float %19 to double
  %21 = fmul double %18, %20
  %22 = fcmp ole double %13, %21
  br i1 %22, label %31, label %23

23:                                               ; preds = %4
  %24 = load double, ptr %5, align 8, !tbaa !24
  %25 = load double, ptr %6, align 8, !tbaa !24
  %26 = fsub double %24, %25
  %27 = call double @llvm.fabs.f64(double %26)
  %28 = load float, ptr %8, align 4, !tbaa !22
  %29 = fpext float %28 to double
  %30 = fcmp ole double %27, %29
  br label %31

31:                                               ; preds = %23, %4
  %32 = phi i1 [ true, %4 ], [ %30, %23 ]
  ret i1 %32
}

; Function Attrs: mustprogress nounwind uwtable
define void @_Z10cmp_doubleP8_IO_FILEPKcidddd(ptr noundef %0, ptr noundef %1, i32 noundef %2, double noundef %3, double noundef %4, double noundef %5, double noundef %6) #0 {
  %8 = alloca ptr, align 8
  %9 = alloca ptr, align 8
  %10 = alloca i32, align 4
  %11 = alloca double, align 8
  %12 = alloca double, align 8
  %13 = alloca double, align 8
  %14 = alloca double, align 8
  store ptr %0, ptr %8, align 8, !tbaa !4
  store ptr %1, ptr %9, align 8, !tbaa !9
  store i32 %2, ptr %10, align 4, !tbaa !11
  store double %3, ptr %11, align 8, !tbaa !24
  store double %4, ptr %12, align 8, !tbaa !24
  store double %5, ptr %13, align 8, !tbaa !24
  store double %6, ptr %14, align 8, !tbaa !24
  %15 = load double, ptr %11, align 8, !tbaa !24
  %16 = load double, ptr %12, align 8, !tbaa !24
  %17 = load double, ptr %13, align 8, !tbaa !24
  %18 = fptrunc double %17 to float
  %19 = load double, ptr %14, align 8, !tbaa !24
  %20 = fptrunc double %19 to float
  %21 = call noundef zeroext i1 @_Z12equal_doubleddff(double noundef %15, double noundef %16, float noundef %18, float noundef %20)
  br i1 %21, label %39, label %22

22:                                               ; preds = %7
  %23 = load i32, ptr %10, align 4, !tbaa !11
  %24 = icmp ne i32 %23, -1
  br i1 %24, label %25, label %32

25:                                               ; preds = %22
  %26 = load ptr, ptr %8, align 8, !tbaa !4
  %27 = load ptr, ptr %9, align 8, !tbaa !9
  %28 = load i32, ptr %10, align 4, !tbaa !11
  %29 = load double, ptr %11, align 8, !tbaa !24
  %30 = load double, ptr %12, align 8, !tbaa !24
  %31 = call i32 (ptr, ptr, ...) @fprintf(ptr noundef %26, ptr noundef @.str.14, ptr noundef %27, i32 noundef %28, double noundef %29, double noundef %30) #6
  br label %38

32:                                               ; preds = %22
  %33 = load ptr, ptr %8, align 8, !tbaa !4
  %34 = load ptr, ptr %9, align 8, !tbaa !9
  %35 = load double, ptr %11, align 8, !tbaa !24
  %36 = load double, ptr %12, align 8, !tbaa !24
  %37 = call i32 (ptr, ptr, ...) @fprintf(ptr noundef %33, ptr noundef @.str.15, ptr noundef %34, double noundef %35, double noundef %36) #6
  br label %38

38:                                               ; preds = %32, %25
  br label %39

39:                                               ; preds = %38, %7
  ret void
}