; Function Attrs: mustprogress nofree nounwind uwtable
define void @_Z10cmp_doubleP8_IO_FILEPKcidddd(ptr noundef captures(none) %0, ptr noundef %1, i32 noundef %2, double noundef %3, double noundef %4, double noundef %5, double noundef %6) local_unnamed_addr #0 {
  %8 = fptrunc double %5 to float
  %9 = fptrunc double %6 to float
  %10 = fsub double %3, %4
  %11 = tail call double @llvm.fabs.f64(double %10)
  %12 = fmul double %11, 2.000000e+00
  %13 = tail call double @llvm.fabs.f64(double %3)
  %14 = tail call double @llvm.fabs.f64(double %4)
  %15 = fadd double %13, %14
  %16 = fpext float %8 to double
  %17 = fmul double %15, %16
  %18 = fcmp ole double %12, %17
  %19 = fpext float %9 to double
  %20 = fcmp ole double %11, %19
  %21 = or i1 %18, %20
  br i1 %21, label %27, label %22

22:                                               ; preds = %7
  %.not = icmp eq i32 %2, -1
  br i1 %.not, label %25, label %23

23:                                               ; preds = %22
  %24 = tail call i32 (ptr, ptr, ...) @fprintf(ptr noundef %0, ptr noundef nonnull @.str.14, ptr noundef %1, i32 noundef %2, double noundef %3, double noundef %4) #6
  br label %27

25:                                               ; preds = %22
  %26 = tail call i32 (ptr, ptr, ...) @fprintf(ptr noundef %0, ptr noundef nonnull @.str.15, ptr noundef %1, double noundef %3, double noundef %4) #6
  br label %27

27:                                               ; preds = %23, %25, %7
  ret void
}